; Function Attrs: nounwind uwtable
define range(i32 -1, 1) i32 @evtag_peek_length(ptr noundef %0, ptr noundef writeonly captures(none) %1) local_unnamed_addr #1 {
  %3 = tail call i64 @evbuffer_get_length(ptr noundef %0) #7
  %4 = tail call i64 @llvm.umin.i64(i64 %3, i64 5)
  %5 = tail call ptr @evbuffer_pullup(ptr noundef %0, i64 noundef %4) #7
  %.not.i = icmp eq ptr %5, null
  br i1 %.not.i, label %decode_tag_internal.exit.thread, label %.preheader.i

.preheader.i:                                     ; preds = %2, %13
  %.033.i = phi ptr [ %8, %13 ], [ %5, %2 ]
  %.032.i = phi i64 [ %6, %13 ], [ 0, %2 ]
  %.030.i = phi i32 [ %14, %13 ], [ 0, %2 ]
  %6 = add i64 %.032.i, 1
  %exitcond.not.i = icmp eq i64 %.032.i, %3
  br i1 %exitcond.not.i, label %decode_tag_internal.exit.thread, label %7

7:                                                ; preds = %.preheader.i
  %8 = getelementptr inbounds nuw i8, ptr %.033.i, i64 1
  %9 = load i8, ptr %.033.i, align 1
  %10 = icmp samesign ugt i32 %.030.i, 27
  br i1 %10, label %11, label %13

11:                                               ; preds = %7
  %.not39.i = icmp eq i32 %.030.i, 28
  %12 = and i8 %9, 112
  %.not40.i = icmp eq i8 %12, 0
  %or.cond.i = select i1 %.not39.i, i1 %.not40.i, i1 false
  br i1 %or.cond.i, label %13, label %decode_tag_internal.exit.thread

13:                                               ; preds = %11, %7
  %14 = add nuw nsw i32 %.030.i, 7
  %.not41.i = icmp sgt i8 %9, -1
  br i1 %.not41.i, label %.thread49.i, label %.preheader.i

.thread49.i:                                      ; preds = %13
  %.not54.le.i = icmp ult i64 %.032.i, %3
  br i1 %.not54.le.i, label %decode_tag_internal.exit, label %decode_tag_internal.exit.thread

decode_tag_internal.exit:                         ; preds = %.thread49.i
  %15 = tail call i64 @llvm.umin.i64(i64 %6, i64 2147483647)
  %16 = trunc nuw nsw i64 %15 to i32
  %17 = tail call i64 @evbuffer_get_length(ptr noundef %0) #7
  %18 = sub i64 %17, %15
  %19 = icmp slt i64 %18, 1
  br i1 %19, label %decode_tag_internal.exit.thread, label %20

20:                                               ; preds = %decode_tag_internal.exit
  %21 = add nuw nsw i64 %15, 1
  %22 = tail call ptr @evbuffer_pullup(ptr noundef %0, i64 noundef %21) #7
  %.not.i11 = icmp eq ptr %22, null
  br i1 %.not.i11, label %decode_tag_internal.exit.thread, label %23

23:                                               ; preds = %20
  %24 = getelementptr inbounds nuw i8, ptr %22, i64 %15
  %25 = load i8, ptr %24, align 1
  %26 = lshr i8 %25, 4
  %narrow.i = add nuw nsw i8 %26, 1
  %27 = zext nneg i8 %narrow.i to i32
  %28 = icmp slt i8 %25, 0
  br i1 %28, label %decode_tag_internal.exit.thread, label %29

29:                                               ; preds = %23
  %30 = lshr i32 %27, 1
  %31 = add nuw nsw i32 %30, 1
  %32 = zext nneg i32 %31 to i64
  %33 = icmp samesign ult i64 %18, %32
  br i1 %33, label %decode_tag_internal.exit.thread, label %34

34:                                               ; preds = %29
  %35 = add nuw nsw i64 %15, %32
  %36 = tail call ptr @evbuffer_pullup(ptr noundef %0, i64 noundef %35) #7
  %37 = getelementptr inbounds nuw i8, ptr %36, i64 %15
  %.not36.i = icmp eq ptr %36, null
  br i1 %.not36.i, label %decode_tag_internal.exit.thread, label %.preheader.i12

.preheader.i12:                                   ; preds = %34, %.preheader.i12
  %.039.i = phi i32 [ %46, %.preheader.i12 ], [ %27, %34 ]
  %.03038.i = phi i32 [ %.1.i, %.preheader.i12 ], [ 0, %34 ]
  %38 = shl i32 %.03038.i, 4
  %39 = and i32 %.039.i, 1
  %.not37.i = icmp eq i32 %39, 0
  %40 = lshr i32 %.039.i, 1
  %41 = zext nneg i32 %40 to i64
  %42 = getelementptr inbounds nuw i8, ptr %37, i64 %41
  %43 = load i8, ptr %42, align 1
  %44 = and i8 %43, 15
  %45 = lshr i8 %43, 4
  %.pn.in.i = select i1 %.not37.i, i8 %45, i8 %44
  %.pn.i = zext nneg i8 %.pn.in.i to i32
  %.1.i = or disjoint i32 %38, %.pn.i
  %46 = add nsw i32 %.039.i, -1
  %47 = icmp samesign ugt i32 %.039.i, 1
  br i1 %47, label %.preheader.i12, label %decode_int_internal.exit, !llvm.loop !7

decode_int_internal.exit:                         ; preds = %.preheader.i12
  %48 = add nuw nsw i32 %31, %16
  %49 = add i32 %48, %.1.i
  store i32 %49, ptr %1, align 4
  br label %decode_tag_internal.exit.thread

decode_tag_internal.exit.thread:                  ; preds = %.preheader.i, %11, %34, %23, %29, %20, %decode_tag_internal.exit, %.thread49.i, %2, %decode_int_internal.exit
  %.0 = phi i32 [ 0, %decode_int_internal.exit ], [ -1, %2 ], [ -1, %.thread49.i ], [ -1, %decode_tag_internal.exit ], [ -1, %20 ], [ -1, %29 ], [ -1, %23 ], [ -1, %34 ], [ -1, %11 ], [ -1, %.preheader.i ]
  ret i32 %.0
}